target datalayout = "e-m:e-p270:32:32-p271:32:32-p272:64:64-i64:64-i128:128-f80:128-n8:16:32:64-S128"
target triple = "x86_64-pc-linux-gnu"

%struct.solver_t_ = type { i32, ptr, ptr, ptr, ptr, ptr, ptr, i64, i32, ptr, ptr, ptr, ptr, ptr, ptr, ptr, ptr, i32, i32, i64, ptr, ptr, ptr, ptr, ptr, ptr, ptr, i64, i64, i64, float, i32, ptr, i32, i32, i32, i32, i32, ptr, i64, ptr, i32, ptr, %struct.satoko_stats, %struct.satoko_opts }
%struct.satoko_stats = type { i32, i32, i64, i64, i64, i64, i64, i64, i64, i64 }
%struct.satoko_opts = type { i64, i64, double, double, i32, i32, i32, i32, i32, i32, i32, float, double, float, i32, i64, i32, i32, float, i8, i8 }
%struct.clause = type { i32, i32, [0 x %union.anon] }
%union.anon = type { i32 }
%struct.vec_uint_t_ = type { i32, i32, ptr }
%struct.cdb = type { i32, i32, i32, ptr }

@stdout = external global ptr, align 8
@.str.6 = private unnamed_addr constant [23 x i8] c"[Satoko] All SAT - OK\0A\00", align 1
@.str.7 = private unnamed_addr constant [36 x i8] c"[Satoko] Checking clauses (%d)... \0A\00", align 1
@.str.8 = private unnamed_addr constant [35 x i8] c"[Satoko] FOUND UNSAT CLAUSE: (%d) \00", align 1
@.str.14 = private unnamed_addr constant [3 x i8] c"{ \00", align 1
@.str.15 = private unnamed_addr constant [4 x i8] c"%u \00", align 1
@.str.16 = private unnamed_addr constant [3 x i8] c"}\0A\00", align 1

; Function Attrs: inlinehint nounwind uwtable
define internal ptr @cdb_handler(ptr noundef %0, i32 noundef %1) #2 {
  %3 = alloca ptr, align 8
  %4 = alloca i32, align 4
  store ptr %0, ptr %3, align 8, !tbaa !37
  store i32 %1, ptr %4, align 4, !tbaa !10
  %5 = load i32, ptr %4, align 4, !tbaa !10
  %6 = icmp ne i32 %5, -1
  br i1 %6, label %7, label %14

7:                                                ; preds = %2
  %8 = load ptr, ptr %3, align 8, !tbaa !37
  %9 = getelementptr inbounds nuw %struct.cdb, ptr %8, i32 0, i32 3
  %10 = load ptr, ptr %9, align 8, !tbaa !151
  %11 = load i32, ptr %4, align 4, !tbaa !10
  %12 = zext i32 %11 to i64
  %13 = getelementptr inbounds nuw i32, ptr %10, i64 %12
  br label %15

14:                                               ; preds = %2
  br label %15

15:                                               ; preds = %14, %7
  %16 = phi ptr [ %13, %7 ], [ null, %14 ]
  ret ptr %16
}

; Function Attrs: inlinehint nounwind uwtable
define internal void @clause_print(ptr noundef %0) #2 {
  %2 = alloca ptr, align 8
  %3 = alloca i32, align 4
  store ptr %0, ptr %2, align 8, !tbaa !26
  call void @llvm.lifetime.start.p0(i64 4, ptr %3) #9
  %4 = call i32 (ptr, ...) @printf(ptr noundef @.str.14)
  store i32 0, ptr %3, align 4, !tbaa !10
  br label %5

5:                                                ; preds = %19, %1
  %6 = load i32, ptr %3, align 4, !tbaa !10
  %7 = load ptr, ptr %2, align 8, !tbaa !26
  %8 = getelementptr inbounds nuw %struct.clause, ptr %7, i32 0, i32 1
  %9 = load i32, ptr %8, align 4, !tbaa !28
  %10 = icmp ult i32 %6, %9
  br i1 %10, label %11, label %22

11:                                               ; preds = %5
  %12 = load ptr, ptr %2, align 8, !tbaa !26
  %13 = getelementptr inbounds nuw %struct.clause, ptr %12, i32 0, i32 2
  %14 = load i32, ptr %3, align 4, !tbaa !10
  %15 = zext i32 %14 to i64
  %16 = getelementptr inbounds nuw [0 x %union.anon], ptr %13, i64 0, i64 %15
  %17 = load i32, ptr %16, align 4, !tbaa !31
  %18 = call i32 (ptr, ...) @printf(ptr noundef @.str.15, i32 noundef %17)
  br label %19

19:                                               ; preds = %11
  %20 = load i32, ptr %3, align 4, !tbaa !10
  %21 = add i32 %20, 1
  store i32 %21, ptr %3, align 4, !tbaa !10
  br label %5, !llvm.loop !146

22:                                               ; preds = %5
  %23 = call i32 (ptr, ...) @printf(ptr noundef @.str.16)
  call void @llvm.lifetime.end.p0(i64 4, ptr %3) #9
  ret void
}

; Function Attrs: inlinehint nounwind uwtable
define internal i32 @vec_uint_find(ptr noundef %0, i32 noundef %1) #2 {
  %3 = alloca i32, align 4
  %4 = alloca ptr, align 8
  %5 = alloca i32, align 4
  %6 = alloca i32, align 4
  %7 = alloca i32, align 4
  store ptr %0, ptr %4, align 8, !tbaa !8
  store i32 %1, ptr %5, align 4, !tbaa !10
  call void @llvm.lifetime.start.p0(i64 4, ptr %6) #9
  store i32 0, ptr %6, align 4, !tbaa !10
  br label %8

8:                                                ; preds = %26, %2
  %9 = load i32, ptr %6, align 4, !tbaa !10
  %10 = load ptr, ptr %4, align 8, !tbaa !8
  %11 = getelementptr inbounds nuw %struct.vec_uint_t_, ptr %10, i32 0, i32 1
  %12 = load i32, ptr %11, align 4, !tbaa !35
  %13 = icmp ult i32 %9, %12
  br i1 %13, label %14, label %29

14:                                               ; preds = %8
  %15 = load ptr, ptr %4, align 8, !tbaa !8
  %16 = getelementptr inbounds nuw %struct.vec_uint_t_, ptr %15, i32 0, i32 2
  %17 = load ptr, ptr %16, align 8, !tbaa !40
  %18 = load i32, ptr %6, align 4, !tbaa !10
  %19 = zext i32 %18 to i64
  %20 = getelementptr inbounds nuw i32, ptr %17, i64 %19
  %21 = load i32, ptr %20, align 4, !tbaa !10
  %22 = load i32, ptr %5, align 4, !tbaa !10
  %23 = icmp eq i32 %21, %22
  br i1 %23, label %24, label %25

24:                                               ; preds = %14
  store i32 1, ptr %3, align 4
  store i32 1, ptr %7, align 4
  br label %30

25:                                               ; preds = %14
  br label %26

26:                                               ; preds = %25
  %27 = load i32, ptr %6, align 4, !tbaa !10
  %28 = add i32 %27, 1
  store i32 %28, ptr %6, align 4, !tbaa !10
  br label %8, !llvm.loop !145

29:                                               ; preds = %8
  store i32 0, ptr %3, align 4
  store i32 1, ptr %7, align 4
  br label %30

30:                                               ; preds = %29, %24
  call void @llvm.lifetime.end.p0(i64 4, ptr %6) #9
  %31 = load i32, ptr %3, align 4
  ret i32 %31
}

; Function Attrs: inlinehint nounwind uwtable
define internal ptr @clause_fetch(ptr noundef %0, i32 noundef %1) #2 {
  %3 = alloca ptr, align 8
  %4 = alloca i32, align 4
  store ptr %0, ptr %3, align 8, !tbaa !3
  store i32 %1, ptr %4, align 4, !tbaa !10
  %5 = load ptr, ptr %3, align 8, !tbaa !3
  %6 = getelementptr inbounds nuw %struct.solver_t_, ptr %5, i32 0, i32 3
  %7 = load ptr, ptr %6, align 8, !tbaa !12
  %8 = load i32, ptr %4, align 4, !tbaa !10
  %9 = call ptr @cdb_handler(ptr noundef %7, i32 noundef %8)
  ret ptr %9
}

; Function Attrs: inlinehint nounwind uwtable
define internal i32 @vec_uint_at(ptr noundef %0, i32 noundef %1) #2 {
  %3 = alloca ptr, align 8
  %4 = alloca i32, align 4
  store ptr %0, ptr %3, align 8, !tbaa !8
  store i32 %1, ptr %4, align 4, !tbaa !10
  %5 = load ptr, ptr %3, align 8, !tbaa !8
  %6 = getelementptr inbounds nuw %struct.vec_uint_t_, ptr %5, i32 0, i32 2
  %7 = load ptr, ptr %6, align 8, !tbaa !40
  %8 = load i32, ptr %4, align 4, !tbaa !10
  %9 = zext i32 %8 to i64
  %10 = getelementptr inbounds nuw i32, ptr %7, i64 %9
  %11 = load i32, ptr %10, align 4, !tbaa !10
  ret i32 %11
}

; Function Attrs: inlinehint nounwind uwtable
define internal i32 @vec_uint_size(ptr noundef %0) #2 {
  %2 = alloca ptr, align 8
  store ptr %0, ptr %2, align 8, !tbaa !8
  %3 = load ptr, ptr %2, align 8, !tbaa !8
  %4 = getelementptr inbounds nuw %struct.vec_uint_t_, ptr %3, i32 0, i32 1
  %5 = load i32, ptr %4, align 4, !tbaa !35
  ret i32 %5
}

; Function Attrs: nounwind uwtable
define void @solver_debug_check(ptr noundef %0, i32 noundef %1) #0 {
  %3 = alloca ptr, align 8
  %4 = alloca i32, align 4
  %5 = alloca i32, align 4
  %6 = alloca i32, align 4
  %7 = alloca i32, align 4
  %8 = alloca ptr, align 8
  store ptr %0, ptr %3, align 8, !tbaa !3
  store i32 %1, ptr %4, align 4, !tbaa !10
  call void @llvm.lifetime.start.p0(i64 4, ptr %5) #9
  call void @llvm.lifetime.start.p0(i64 4, ptr %6) #9
  %9 = load ptr, ptr %3, align 8, !tbaa !3
  call void @solver_debug_check_trail(ptr noundef %9)
  %10 = load ptr, ptr @stdout, align 8, !tbaa !132
  %11 = load ptr, ptr %3, align 8, !tbaa !3
  %12 = getelementptr inbounds nuw %struct.solver_t_, ptr %11, i32 0, i32 5
  %13 = load ptr, ptr %12, align 8, !tbaa !33
  %14 = call i32 @vec_uint_size(ptr noundef %13)
  %15 = call i32 (ptr, ptr, ...) @fprintf(ptr noundef %10, ptr noundef @.str.7, i32 noundef %14) #9
  store i32 0, ptr %6, align 4, !tbaa !10
  br label %16

16:                                               ; preds = %73, %2
  %17 = load i32, ptr %6, align 4, !tbaa !10
  %18 = load ptr, ptr %3, align 8, !tbaa !3
  %19 = getelementptr inbounds nuw %struct.solver_t_, ptr %18, i32 0, i32 5
  %20 = load ptr, ptr %19, align 8, !tbaa !33
  %21 = call i32 @vec_uint_size(ptr noundef %20)
  %22 = icmp ult i32 %17, %21
  br i1 %22, label %23, label %29

23:                                               ; preds = %16
  %24 = load ptr, ptr %3, align 8, !tbaa !3
  %25 = getelementptr inbounds nuw %struct.solver_t_, ptr %24, i32 0, i32 5
  %26 = load ptr, ptr %25, align 8, !tbaa !33
  %27 = load i32, ptr %6, align 4, !tbaa !10
  %28 = call i32 @vec_uint_at(ptr noundef %26, i32 noundef %27)
  store i32 %28, ptr %5, align 4, !tbaa !10
  br label %29

29:                                               ; preds = %23, %16
  %30 = phi i1 [ false, %16 ], [ true, %23 ]
  br i1 %30, label %31, label %76

31:                                               ; preds = %29
  call void @llvm.lifetime.start.p0(i64 4, ptr %7) #9
  call void @llvm.lifetime.start.p0(i64 8, ptr %8) #9
  %32 = load ptr, ptr %3, align 8, !tbaa !3
  %33 = load i32, ptr %5, align 4, !tbaa !10
  %34 = call ptr @clause_fetch(ptr noundef %32, i32 noundef %33)
  store ptr %34, ptr %8, align 8, !tbaa !26
  store i32 0, ptr %7, align 4, !tbaa !10
  br label %35

35:                                               ; preds = %55, %31
  %36 = load i32, ptr %7, align 4, !tbaa !10
  %37 = load ptr, ptr %8, align 8, !tbaa !26
  %38 = getelementptr inbounds nuw %struct.clause, ptr %37, i32 0, i32 1
  %39 = load i32, ptr %38, align 4, !tbaa !28
  %40 = icmp ult i32 %36, %39
  br i1 %40, label %41, label %58

41:                                               ; preds = %35
  %42 = load ptr, ptr %3, align 8, !tbaa !3
  %43 = getelementptr inbounds nuw %struct.solver_t_, ptr %42, i32 0, i32 15
  %44 = load ptr, ptr %43, align 8, !tbaa !48
  %45 = load ptr, ptr %8, align 8, !tbaa !26
  %46 = getelementptr inbounds nuw %struct.clause, ptr %45, i32 0, i32 2
  %47 = load i32, ptr %7, align 4, !tbaa !10
  %48 = zext i32 %47 to i64
  %49 = getelementptr inbounds nuw [0 x %union.anon], ptr %46, i64 0, i64 %48
  %50 = load i32, ptr %49, align 4, !tbaa !31
  %51 = call i32 @vec_uint_find(ptr noundef %44, i32 noundef %50)
  %52 = icmp ne i32 %51, 0
  br i1 %52, label %53, label %54

53:                                               ; preds = %41
  br label %58

54:                                               ; preds = %41
  br label %55

55:                                               ; preds = %54
  %56 = load i32, ptr %7, align 4, !tbaa !10
  %57 = add i32 %56, 1
  store i32 %57, ptr %7, align 4, !tbaa !10
  br label %35, !llvm.loop !147

58:                                               ; preds = %53, %35
  %59 = load i32, ptr %4, align 4, !tbaa !10
  %60 = icmp eq i32 %59, 1
  br i1 %60, label %61, label %72

61:                                               ; preds = %58
  %62 = load i32, ptr %7, align 4, !tbaa !10
  %63 = load ptr, ptr %8, align 8, !tbaa !26
  %64 = getelementptr inbounds nuw %struct.clause, ptr %63, i32 0, i32 1
  %65 = load i32, ptr %64, align 4, !tbaa !28
  %66 = icmp eq i32 %62, %65
  br i1 %66, label %67, label %72

67:                                               ; preds = %61
  %68 = load ptr, ptr @stdout, align 8, !tbaa !132
  %69 = load i32, ptr %6, align 4, !tbaa !10
  %70 = call i32 (ptr, ptr, ...) @fprintf(ptr noundef %68, ptr noundef @.str.8, i32 noundef %69) #9
  %71 = load ptr, ptr %8, align 8, !tbaa !26
  call void @clause_print(ptr noundef %71)
  br label %72

72:                                               ; preds = %67, %61, %58
  call void @llvm.lifetime.end.p0(i64 8, ptr %8) #9
  call void @llvm.lifetime.end.p0(i64 4, ptr %7) #9
  br label %73

73:                                               ; preds = %72
  %74 = load i32, ptr %6, align 4, !tbaa !10
  %75 = add i32 %74, 1
  store i32 %75, ptr %6, align 4, !tbaa !10
  br label %16, !llvm.loop !148

76:                                               ; preds = %29
  %77 = load ptr, ptr @stdout, align 8, !tbaa !132
  %78 = call i32 (ptr, ptr, ...) @fprintf(ptr noundef %77, ptr noundef @.str.6) #9
  call void @llvm.lifetime.end.p0(i64 4, ptr %6) #9
  call void @llvm.lifetime.end.p0(i64 4, ptr %5) #9
  ret void
}