; Function Attrs: nounwind uwtable
define void @solver_debug_check(ptr noundef readonly captures(none) %0, i32 noundef %1) local_unnamed_addr #0 {
  tail call void @solver_debug_check_trail(ptr noundef %0)
  %3 = load ptr, ptr @stdout, align 8, !tbaa !89
  %4 = getelementptr inbounds nuw i8, ptr %0, i64 40
  %5 = load ptr, ptr %4, align 8, !tbaa !44
  %6 = getelementptr i8, ptr %5, i64 4
  %.val20 = load i32, ptr %6, align 4, !tbaa !3
  %7 = tail call i32 (ptr, ptr, ...) @fprintf(ptr noundef %3, ptr noundef nonnull @.str.7, i32 noundef %.val20) #19
  %8 = load ptr, ptr %4, align 8, !tbaa !44
  %9 = getelementptr i8, ptr %8, i64 4
  %.val38 = load i32, ptr %9, align 4, !tbaa !3
  %.not = icmp eq i32 %.val38, 0
  br i1 %.not, label %.critedge, label %.lr.ph40

.lr.ph40:                                         ; preds = %2
  %10 = getelementptr i8, ptr %0, i64 24
  %11 = getelementptr inbounds nuw i8, ptr %0, i64 120
  %12 = icmp eq i32 %1, 1
  br i1 %12, label %.lr.ph40.split, label %.critedge

.lr.ph40.split:                                   ; preds = %.lr.ph40, %54
  %13 = phi ptr [ %55, %54 ], [ %8, %.lr.ph40 ]
  %indvars.iv = phi i64 [ %indvars.iv.next, %54 ], [ 0, %.lr.ph40 ]
  %14 = getelementptr i8, ptr %13, i64 8
  %.val22 = load ptr, ptr %14, align 8, !tbaa !32
  %15 = getelementptr inbounds nuw i32, ptr %.val22, i64 %indvars.iv
  %16 = load i32, ptr %15, align 4, !tbaa !35
  %.not.i.i = icmp eq i32 %16, -1
  br i1 %.not.i.i, label %clause_fetch.exit, label %17

17:                                               ; preds = %.lr.ph40.split
  %.val21 = load ptr, ptr %10, align 8, !tbaa !10
  %18 = getelementptr inbounds nuw i8, ptr %.val21, i64 16
  %19 = load ptr, ptr %18, align 8, !tbaa !29
  %20 = zext i32 %16 to i64
  %21 = getelementptr inbounds nuw i32, ptr %19, i64 %20
  br label %clause_fetch.exit

clause_fetch.exit:                                ; preds = %.lr.ph40.split, %17
  %22 = phi ptr [ %21, %17 ], [ null, %.lr.ph40.split ]
  %23 = getelementptr inbounds nuw i8, ptr %22, i64 4
  %24 = load i32, ptr %23, align 4, !tbaa !30
  %.not46 = icmp eq i32 %24, 0
  br i1 %.not46, label %vec_uint_find.exit, label %.lr.ph

.lr.ph:                                           ; preds = %clause_fetch.exit
  %25 = load ptr, ptr %11, align 8, !tbaa !47
  %26 = getelementptr inbounds nuw i8, ptr %22, i64 8
  %27 = getelementptr inbounds nuw i8, ptr %25, i64 4
  %28 = load i32, ptr %27, align 4, !tbaa !3
  %.not.i = icmp eq i32 %28, 0
  %wide.trip.count.i = zext i32 %28 to i64
  br i1 %.not.i, label %vec_uint_find.exit.thread, label %.lr.ph.split

.lr.ph.split:                                     ; preds = %.lr.ph
  %29 = getelementptr inbounds nuw i8, ptr %25, i64 8
  %30 = load ptr, ptr %29, align 8, !tbaa !32
  br label %.lr.ph.i

.lr.ph.i:                                         ; preds = %.lr.ph.split, %.loopexit
  %.01935 = phi i32 [ 0, %.lr.ph.split ], [ %39, %.loopexit ]
  %31 = zext i32 %.01935 to i64
  %32 = getelementptr inbounds nuw [0 x %union.anon], ptr %26, i64 0, i64 %31
  %33 = load i32, ptr %32, align 4, !tbaa !40
  br label %35

34:                                               ; preds = %35
  %indvars.iv.next.i = add nuw nsw i64 %indvars.iv.i, 1
  %exitcond.not.i = icmp eq i64 %indvars.iv.next.i, %wide.trip.count.i
  br i1 %exitcond.not.i, label %.loopexit, label %35, !llvm.loop !182

35:                                               ; preds = %34, %.lr.ph.i
  %indvars.iv.i = phi i64 [ 0, %.lr.ph.i ], [ %indvars.iv.next.i, %34 ]
  %36 = getelementptr inbounds nuw i32, ptr %30, i64 %indvars.iv.i
  %37 = load i32, ptr %36, align 4, !tbaa !35
  %38 = icmp eq i32 %37, %33
  br i1 %38, label %vec_uint_find.exit, label %34

.loopexit:                                        ; preds = %34
  %39 = add nuw i32 %.01935, 1
  %exitcond.not = icmp eq i32 %39, %24
  br i1 %exitcond.not, label %vec_uint_find.exit.thread, label %.lr.ph.i, !llvm.loop !186

vec_uint_find.exit:                               ; preds = %35, %clause_fetch.exit
  %.01934 = phi i32 [ 0, %clause_fetch.exit ], [ %.01935, %35 ]
  %40 = icmp eq i32 %.01934, %24
  br i1 %40, label %vec_uint_find.exit.thread, label %54

vec_uint_find.exit.thread:                        ; preds = %.loopexit, %.lr.ph, %vec_uint_find.exit
  %41 = load ptr, ptr @stdout, align 8, !tbaa !89
  %42 = trunc nuw i64 %indvars.iv to i32
  %43 = tail call i32 (ptr, ptr, ...) @fprintf(ptr noundef %41, ptr noundef nonnull @.str.8, i32 noundef %42) #19
  %44 = tail call i32 (ptr, ...) @printf(ptr noundef nonnull dereferenceable(1) @.str.14)
  %45 = load i32, ptr %23, align 4, !tbaa !30
  %.not.i23 = icmp eq i32 %45, 0
  br i1 %.not.i23, label %clause_print.exit, label %.lr.ph.i24

.lr.ph.i24:                                       ; preds = %vec_uint_find.exit.thread
  %46 = getelementptr inbounds nuw i8, ptr %22, i64 8
  br label %47

47:                                               ; preds = %47, %.lr.ph.i24
  %indvars.iv.i25 = phi i64 [ 0, %.lr.ph.i24 ], [ %indvars.iv.next.i26, %47 ]
  %48 = getelementptr inbounds nuw [0 x %union.anon], ptr %46, i64 0, i64 %indvars.iv.i25
  %49 = load i32, ptr %48, align 4, !tbaa !40
  %50 = tail call i32 (ptr, ...) @printf(ptr noundef nonnull dereferenceable(1) @.str.15, i32 noundef %49)
  %indvars.iv.next.i26 = add nuw nsw i64 %indvars.iv.i25, 1
  %51 = load i32, ptr %23, align 4, !tbaa !30
  %52 = zext i32 %51 to i64
  %53 = icmp samesign ult i64 %indvars.iv.next.i26, %52
  br i1 %53, label %47, label %clause_print.exit, !llvm.loop !184

clause_print.exit:                                ; preds = %47, %vec_uint_find.exit.thread
  %puts.i = tail call i32 @puts(ptr nonnull dereferenceable(1) @str)
  %.pre = load ptr, ptr %4, align 8, !tbaa !44
  br label %54

54:                                               ; preds = %clause_print.exit, %vec_uint_find.exit
  %55 = phi ptr [ %.pre, %clause_print.exit ], [ %13, %vec_uint_find.exit ]
  %indvars.iv.next = add nuw nsw i64 %indvars.iv, 1
  %56 = getelementptr i8, ptr %55, i64 4
  %.val = load i32, ptr %56, align 4, !tbaa !3
  %57 = zext i32 %.val to i64
  %58 = icmp samesign ult i64 %indvars.iv.next, %57
  br i1 %58, label %.lr.ph40.split, label %.critedge, !llvm.loop !187

.critedge:                                        ; preds = %54, %.lr.ph40, %2
  %59 = load ptr, ptr @stdout, align 8, !tbaa !89
  %60 = tail call i64 @fwrite(ptr nonnull @.str.6, i64 22, i64 1, ptr %59)
  ret void
}